target datalayout = "e-m:e-p270:32:32-p271:32:32-p272:64:64-i64:64-i128:128-f80:128-n8:16:32:64-S128"
target triple = "x86_64-pc-linux-gnu"

%struct.PQExpBufferData = type { ptr, i64, i64 }

@sigint_interrupt_enabled = external global i32, align 4
@gets_fromFile.buffer = internal global ptr null, align 8
@.str = private unnamed_addr constant [35 x i8] c"could not read from input file: %m\00", align 1
@.str.1 = private unnamed_addr constant [14 x i8] c"out of memory\00", align 1

; Function Attrs: nounwind uwtable
define dso_local ptr @gets_fromFile(ptr noundef %0) #0 {
  %2 = alloca ptr, align 8
  %3 = alloca ptr, align 8
  %4 = alloca [1024 x i8], align 16
  %5 = alloca ptr, align 8
  %6 = alloca i32, align 4
  store ptr %0, ptr %3, align 8
  call void @llvm.lifetime.start.p0(i64 1024, ptr %4) #5
  %7 = load ptr, ptr @gets_fromFile.buffer, align 8
  %8 = icmp eq ptr %7, null
  br i1 %8, label %9, label %11

9:                                                ; preds = %1
  %10 = call ptr @createPQExpBuffer()
  store ptr %10, ptr @gets_fromFile.buffer, align 8
  br label %13

11:                                               ; preds = %1
  %12 = load ptr, ptr @gets_fromFile.buffer, align 8
  call void @resetPQExpBuffer(ptr noundef %12)
  br label %13

13:                                               ; preds = %11, %9
  br label %14

14:                                               ; preds = %70, %13
  call void @llvm.lifetime.start.p0(i64 8, ptr %5) #5
  store volatile i32 1, ptr @sigint_interrupt_enabled, align 4
  %15 = getelementptr inbounds [1024 x i8], ptr %4, i64 0, i64 0
  %16 = load ptr, ptr %3, align 8
  %17 = call ptr @fgets(ptr noundef %15, i32 noundef 1024, ptr noundef %16)
  store ptr %17, ptr %5, align 8
  store volatile i32 0, ptr @sigint_interrupt_enabled, align 4
  %18 = load ptr, ptr %5, align 8
  %19 = icmp eq ptr %18, null
  br i1 %19, label %20, label %26

20:                                               ; preds = %14
  %21 = load ptr, ptr %3, align 8
  %22 = call i32 @ferror(ptr noundef %21) #5
  %23 = icmp ne i32 %22, 0
  br i1 %23, label %24, label %25

24:                                               ; preds = %20
  call void (i32, i32, ptr, ...) @pg_log_generic(i32 noundef 4, i32 noundef 0, ptr noundef @.str)
  store ptr null, ptr %2, align 8
  store i32 1, ptr %6, align 4
  br label %68

25:                                               ; preds = %20
  store i32 2, ptr %6, align 4
  br label %68

26:                                               ; preds = %14
  %27 = load ptr, ptr @gets_fromFile.buffer, align 8
  %28 = getelementptr inbounds [1024 x i8], ptr %4, i64 0, i64 0
  call void @appendPQExpBufferStr(ptr noundef %27, ptr noundef %28)
  %29 = load ptr, ptr @gets_fromFile.buffer, align 8
  %30 = icmp eq ptr %29, null
  br i1 %30, label %36, label %31

31:                                               ; preds = %26
  %32 = load ptr, ptr @gets_fromFile.buffer, align 8
  %33 = getelementptr inbounds nuw %struct.PQExpBufferData, ptr %32, i32 0, i32 2
  %34 = load i64, ptr %33, align 8
  %35 = icmp eq i64 %34, 0
  br i1 %35, label %36, label %37

36:                                               ; preds = %31, %26
  call void (i32, i32, ptr, ...) @pg_log_generic(i32 noundef 4, i32 noundef 0, ptr noundef @.str.1)
  store ptr null, ptr %2, align 8
  store i32 1, ptr %6, align 4
  br label %68

37:                                               ; preds = %31
  %38 = load ptr, ptr @gets_fromFile.buffer, align 8
  %39 = getelementptr inbounds nuw %struct.PQExpBufferData, ptr %38, i32 0, i32 1
  %40 = load i64, ptr %39, align 8
  %41 = icmp ugt i64 %40, 0
  br i1 %41, label %42, label %67

42:                                               ; preds = %37
  %43 = load ptr, ptr @gets_fromFile.buffer, align 8
  %44 = getelementptr inbounds nuw %struct.PQExpBufferData, ptr %43, i32 0, i32 0
  %45 = load ptr, ptr %44, align 8
  %46 = load ptr, ptr @gets_fromFile.buffer, align 8
  %47 = getelementptr inbounds nuw %struct.PQExpBufferData, ptr %46, i32 0, i32 1
  %48 = load i64, ptr %47, align 8
  %49 = sub i64 %48, 1
  %50 = getelementptr inbounds nuw i8, ptr %45, i64 %49
  %51 = load i8, ptr %50, align 1
  %52 = sext i8 %51 to i32
  %53 = icmp eq i32 %52, 10
  br i1 %53, label %54, label %67

54:                                               ; preds = %42
  %55 = load ptr, ptr @gets_fromFile.buffer, align 8
  %56 = getelementptr inbounds nuw %struct.PQExpBufferData, ptr %55, i32 0, i32 0
  %57 = load ptr, ptr %56, align 8
  %58 = load ptr, ptr @gets_fromFile.buffer, align 8
  %59 = getelementptr inbounds nuw %struct.PQExpBufferData, ptr %58, i32 0, i32 1
  %60 = load i64, ptr %59, align 8
  %61 = sub i64 %60, 1
  %62 = getelementptr inbounds nuw i8, ptr %57, i64 %61
  store i8 0, ptr %62, align 1
  %63 = load ptr, ptr @gets_fromFile.buffer, align 8
  %64 = getelementptr inbounds nuw %struct.PQExpBufferData, ptr %63, i32 0, i32 0
  %65 = load ptr, ptr %64, align 8
  %66 = call ptr @pg_strdup(ptr noundef %65)
  store ptr %66, ptr %2, align 8
  store i32 1, ptr %6, align 4
  br label %68

67:                                               ; preds = %42, %37
  store i32 0, ptr %6, align 4
  br label %68

68:                                               ; preds = %67, %54, %36, %25, %24
  call void @llvm.lifetime.end.p0(i64 8, ptr %5) #5
  %69 = load i32, ptr %6, align 4
  switch i32 %69, label %82 [
    i32 0, label %70
    i32 2, label %71
  ]

70:                                               ; preds = %68
  br label %14

71:                                               ; preds = %68
  %72 = load ptr, ptr @gets_fromFile.buffer, align 8
  %73 = getelementptr inbounds nuw %struct.PQExpBufferData, ptr %72, i32 0, i32 1
  %74 = load i64, ptr %73, align 8
  %75 = icmp ugt i64 %74, 0
  br i1 %75, label %76, label %81

76:                                               ; preds = %71
  %77 = load ptr, ptr @gets_fromFile.buffer, align 8
  %78 = getelementptr inbounds nuw %struct.PQExpBufferData, ptr %77, i32 0, i32 0
  %79 = load ptr, ptr %78, align 8
  %80 = call ptr @pg_strdup(ptr noundef %79)
  store ptr %80, ptr %2, align 8
  store i32 1, ptr %6, align 4
  br label %82

81:                                               ; preds = %71
  store ptr null, ptr %2, align 8
  store i32 1, ptr %6, align 4
  br label %82

82:                                               ; preds = %81, %76, %68
  call void @llvm.lifetime.end.p0(i64 1024, ptr %4) #5
  %83 = load ptr, ptr %2, align 8
  ret ptr %83
}