; Function Attrs: nounwind uwtable
define dso_local ptr @gets_fromFile(ptr noundef captures(none) %0) local_unnamed_addr #0 {
  %2 = alloca [1024 x i8], align 16
  call void @llvm.lifetime.start.p0(i64 1024, ptr nonnull %2) #9
  %3 = load ptr, ptr @gets_fromFile.buffer, align 8
  %4 = icmp eq ptr %3, null
  br i1 %4, label %5, label %7

5:                                                ; preds = %1
  %6 = tail call ptr @createPQExpBuffer() #9
  store ptr %6, ptr @gets_fromFile.buffer, align 8
  br label %8

7:                                                ; preds = %1
  tail call void @resetPQExpBuffer(ptr noundef nonnull %3) #9
  br label %8

8:                                                ; preds = %7, %5
  store volatile i32 1, ptr @sigint_interrupt_enabled, align 4
  %9 = call ptr @fgets(ptr noundef nonnull %2, i32 noundef 1024, ptr noundef %0)
  store volatile i32 0, ptr @sigint_interrupt_enabled, align 4
  %10 = icmp eq ptr %9, null
  br i1 %10, label %._crit_edge, label %.lr.ph

._crit_edge:                                      ; preds = %34, %8
  %11 = call i32 @ferror(ptr noundef %0) #9
  %.not8 = icmp eq i32 %11, 0
  br i1 %.not8, label %37, label %12

12:                                               ; preds = %._crit_edge
  call void (i32, i32, ptr, ...) @pg_log_generic(i32 noundef 4, i32 noundef 0, ptr noundef nonnull @.str) #9
  br label %.thread

.lr.ph:                                           ; preds = %8, %34
  %13 = load ptr, ptr @gets_fromFile.buffer, align 8
  call void @appendPQExpBufferStr(ptr noundef %13, ptr noundef nonnull %2) #9
  %14 = load ptr, ptr @gets_fromFile.buffer, align 8
  %15 = icmp eq ptr %14, null
  br i1 %15, label %20, label %16

16:                                               ; preds = %.lr.ph
  %17 = getelementptr inbounds nuw i8, ptr %14, i64 16
  %18 = load i64, ptr %17, align 8
  %19 = icmp eq i64 %18, 0
  br i1 %19, label %20, label %21

20:                                               ; preds = %16, %.lr.ph
  call void (i32, i32, ptr, ...) @pg_log_generic(i32 noundef 4, i32 noundef 0, ptr noundef nonnull @.str.1) #9
  br label %.thread

21:                                               ; preds = %16
  %22 = getelementptr inbounds nuw i8, ptr %14, i64 8
  %23 = load i64, ptr %22, align 8
  %.not = icmp eq i64 %23, 0
  br i1 %.not, label %34, label %24

24:                                               ; preds = %21
  %25 = load ptr, ptr %14, align 8
  %26 = getelementptr i8, ptr %25, i64 %23
  %27 = getelementptr i8, ptr %26, i64 -1
  %28 = load i8, ptr %27, align 1
  %29 = icmp eq i8 %28, 10
  br i1 %29, label %30, label %34

30:                                               ; preds = %24
  %31 = getelementptr i8, ptr %26, i64 -1
  store i8 0, ptr %31, align 1
  %32 = load ptr, ptr %14, align 8
  %33 = call ptr @pg_strdup(ptr noundef %32) #9
  br label %.thread

34:                                               ; preds = %21, %24
  store volatile i32 1, ptr @sigint_interrupt_enabled, align 4
  %35 = call ptr @fgets(ptr noundef nonnull %2, i32 noundef 1024, ptr noundef %0)
  store volatile i32 0, ptr @sigint_interrupt_enabled, align 4
  %36 = icmp eq ptr %35, null
  br i1 %36, label %._crit_edge, label %.lr.ph

37:                                               ; preds = %._crit_edge
  %38 = load ptr, ptr @gets_fromFile.buffer, align 8
  %39 = getelementptr inbounds nuw i8, ptr %38, i64 8
  %40 = load i64, ptr %39, align 8
  %.not9 = icmp eq i64 %40, 0
  br i1 %.not9, label %.thread, label %41

41:                                               ; preds = %37
  %42 = load ptr, ptr %38, align 8
  %43 = call ptr @pg_strdup(ptr noundef %42) #9
  br label %.thread

.thread:                                          ; preds = %30, %20, %12, %37, %41
  %.2 = phi ptr [ %43, %41 ], [ null, %37 ], [ %33, %30 ], [ null, %20 ], [ null, %12 ]
  call void @llvm.lifetime.end.p0(i64 1024, ptr nonnull %2) #9
  ret ptr %.2
}